; Function Attrs: nounwind uwtable
define internal range(i32 0, 23) i32 @experimental_hooks_safety_check_abort_ctl(ptr readnone captures(none) %0, ptr readnone captures(none) %1, i64 %2, ptr noundef readnone captures(address_is_null) %3, ptr noundef readnone captures(address_is_null) %4, ptr noundef readonly captures(address_is_null) %5, i64 noundef %6) #0 {
  %8 = icmp ne ptr %3, null
  %9 = icmp ne ptr %4, null
  %or.cond = or i1 %8, %9
  br i1 %or.cond, label %14, label %10

10:                                               ; preds = %7
  %.not = icmp eq ptr %5, null
  br i1 %.not, label %14, label %11

11:                                               ; preds = %10
  %.not15 = icmp eq i64 %6, 8
  br i1 %.not15, label %12, label %14

12:                                               ; preds = %11
  %13 = load ptr, ptr %5, align 8, !tbaa !213
  tail call void @duckdb_je_safety_check_set_abort(ptr noundef %13) #14
  br label %14

14:                                               ; preds = %7, %11, %12, %10
  %.012 = phi i32 [ 1, %7 ], [ 22, %11 ], [ 0, %12 ], [ 0, %10 ]
  ret i32 %.012
}